; ModuleID = '39/838.c'
source_filename = "39/838.c"
target datalayout = "e-m:e-p270:32:32-p271:32:32-p272:64:64-i64:64-f80:128-n8:16:32:64-S128"
target triple = "x86_64-pc-linux-gnu"

%struct.student = type { [20 x i8], [6 x i32], [3 x i8], i32 }

@.str = private unnamed_addr constant [3 x i8] c"%d\00", align 1
@.str.1 = private unnamed_addr constant [3 x i8] c"%c\00", align 1
@cc = common dso_local global [10 x i8] zeroinitializer, align 1
@.str.2 = private unnamed_addr constant [11 x i8] c"%s%c%d%c%d\00", align 1
@stu = common dso_local global [1000 x %struct.student] zeroinitializer, align 16
@.str.3 = private unnamed_addr constant [15 x i8] c"%c%c%c%c%c%d%c\00", align 1
@.str.4 = private unnamed_addr constant [9 x i8] c"%s\0A%d\0A%d\00", align 1

; Function Attrs: noinline nounwind uwtable
define dso_local i32 @main() #0 {
  %1 = alloca i32, align 4
  %2 = alloca i32, align 4
  %3 = alloca i32, align 4
  %4 = alloca [10000 x i32], align 16
  %5 = alloca i32, align 4
  %6 = alloca i32, align 4
  %7 = alloca i32, align 4
  %8 = alloca i32, align 4
  %9 = alloca i32, align 4
  %10 = alloca i32, align 4
  %11 = alloca i32, align 4
  %12 = alloca i32, align 4
  %13 = alloca i32, align 4
  %14 = alloca i32, align 4
  %15 = alloca i32, align 4
  %16 = alloca i32, align 4
  %17 = alloca i32, align 4
  store i32 0, i32* %1, align 4
  %18 = bitcast [10000 x i32]* %4 to i8*
  call void @llvm.memset.p0i8.i64(i8* align 16 %18, i8 0, i64 40000, i1 false)
  store i32 10000, i32* %6, align 4
  store i32 0, i32* %7, align 4
  store i32 0, i32* %8, align 4
  store i32 0, i32* %9, align 4
  store i32 0, i32* %10, align 4
  store i32 0, i32* %17, align 4
  %19 = call i32 (i8*, ...) @__isoc99_scanf(i8* getelementptr inbounds ([3 x i8], [3 x i8]* @.str, i64 0, i64 0), i32* %5)
  %20 = call i32 (i8*, ...) @__isoc99_scanf(i8* getelementptr inbounds ([3 x i8], [3 x i8]* @.str.1, i64 0, i64 0), i8* getelementptr inbounds ([10 x i8], [10 x i8]* @cc, i64 0, i64 1))
  store i32 1, i32* %14, align 4
  br label %21

21:                                               ; preds = %193, %0
  %22 = load i32, i32* %14, align 4
  %23 = load i32, i32* %5, align 4
  %24 = icmp sle i32 %22, %23
  br i1 %24, label %25, label %196

25:                                               ; preds = %21
  %26 = load i32, i32* %14, align 4
  %27 = sext i32 %26 to i64
  %28 = getelementptr inbounds [1000 x %struct.student], [1000 x %struct.student]* @stu, i64 0, i64 %27
  %29 = getelementptr inbounds %struct.student, %struct.student* %28, i32 0, i32 0
  %30 = getelementptr inbounds [20 x i8], [20 x i8]* %29, i64 0, i64 0
  %31 = load i32, i32* %14, align 4
  %32 = sext i32 %31 to i64
  %33 = getelementptr inbounds [1000 x %struct.student], [1000 x %struct.student]* @stu, i64 0, i64 %32
  %34 = getelementptr inbounds %struct.student, %struct.student* %33, i32 0, i32 1
  %35 = getelementptr inbounds [6 x i32], [6 x i32]* %34, i64 0, i64 1
  %36 = load i32, i32* %14, align 4
  %37 = sext i32 %36 to i64
  %38 = getelementptr inbounds [1000 x %struct.student], [1000 x %struct.student]* @stu, i64 0, i64 %37
  %39 = getelementptr inbounds %struct.student, %struct.student* %38, i32 0, i32 1
  %40 = getelementptr inbounds [6 x i32], [6 x i32]* %39, i64 0, i64 2
  %41 = call i32 (i8*, ...) @__isoc99_scanf(i8* getelementptr inbounds ([11 x i8], [11 x i8]* @.str.2, i64 0, i64 0), i8* %30, i8* getelementptr inbounds ([10 x i8], [10 x i8]* @cc, i64 0, i64 1), i32* %35, i8* getelementptr inbounds ([10 x i8], [10 x i8]* @cc, i64 0, i64 2), i32* %40)
  %42 = load i32, i32* %14, align 4
  %43 = sext i32 %42 to i64
  %44 = getelementptr inbounds [1000 x %struct.student], [1000 x %struct.student]* @stu, i64 0, i64 %43
  %45 = getelementptr inbounds %struct.student, %struct.student* %44, i32 0, i32 2
  %46 = getelementptr inbounds [3 x i8], [3 x i8]* %45, i64 0, i64 1
  %47 = load i32, i32* %14, align 4
  %48 = sext i32 %47 to i64
  %49 = getelementptr inbounds [1000 x %struct.student], [1000 x %struct.student]* @stu, i64 0, i64 %48
  %50 = getelementptr inbounds %struct.student, %struct.student* %49, i32 0, i32 2
  %51 = getelementptr inbounds [3 x i8], [3 x i8]* %50, i64 0, i64 2
  %52 = load i32, i32* %14, align 4
  %53 = sext i32 %52 to i64
  %54 = getelementptr inbounds [1000 x %struct.student], [1000 x %struct.student]* @stu, i64 0, i64 %53
  %55 = getelementptr inbounds %struct.student, %struct.student* %54, i32 0, i32 1
  %56 = getelementptr inbounds [6 x i32], [6 x i32]* %55, i64 0, i64 3
  %57 = call i32 (i8*, ...) @__isoc99_scanf(i8* getelementptr inbounds ([15 x i8], [15 x i8]* @.str.3, i64 0, i64 0), i8* getelementptr inbounds ([10 x i8], [10 x i8]* @cc, i64 0, i64 1), i8* %46, i8* getelementptr inbounds ([10 x i8], [10 x i8]* @cc, i64 0, i64 2), i8* %51, i8* getelementptr inbounds ([10 x i8], [10 x i8]* @cc, i64 0, i64 3), i32* %56, i8* getelementptr inbounds ([10 x i8], [10 x i8]* @cc, i64 0, i64 6))
  %58 = load i32, i32* %14, align 4
  %59 = sext i32 %58 to i64
  %60 = getelementptr inbounds [1000 x %struct.student], [1000 x %struct.student]* @stu, i64 0, i64 %59
  %61 = getelementptr inbounds %struct.student, %struct.student* %60, i32 0, i32 3
  store i32 0, i32* %61, align 4
  %62 = load i32, i32* %14, align 4
  %63 = sext i32 %62 to i64
  %64 = getelementptr inbounds [1000 x %struct.student], [1000 x %struct.student]* @stu, i64 0, i64 %63
  %65 = getelementptr inbounds %struct.student, %struct.student* %64, i32 0, i32 1
  %66 = getelementptr inbounds [6 x i32], [6 x i32]* %65, i64 0, i64 1
  %67 = load i32, i32* %66, align 4
  %68 = icmp sgt i32 %67, 80
  br i1 %68, label %69, label %84

69:                                               ; preds = %25
  %70 = load i32, i32* %14, align 4
  %71 = sext i32 %70 to i64
  %72 = getelementptr inbounds [1000 x %struct.student], [1000 x %struct.student]* @stu, i64 0, i64 %71
  %73 = getelementptr inbounds %struct.student, %struct.student* %72, i32 0, i32 1
  %74 = getelementptr inbounds [6 x i32], [6 x i32]* %73, i64 0, i64 3
  %75 = load i32, i32* %74, align 4
  %76 = icmp sge i32 %75, 1
  br i1 %76, label %77, label %84

77:                                               ; preds = %69
  %78 = load i32, i32* %14, align 4
  %79 = sext i32 %78 to i64
  %80 = getelementptr inbounds [1000 x %struct.student], [1000 x %struct.student]* @stu, i64 0, i64 %79
  %81 = getelementptr inbounds %struct.student, %struct.student* %80, i32 0, i32 3
  %82 = load i32, i32* %81, align 4
  %83 = add nsw i32 %82, 8000
  store i32 %83, i32* %81, align 4
  br label %84

84:                                               ; preds = %77, %69, %25
  %85 = load i32, i32* %14, align 4
  %86 = sext i32 %85 to i64
  %87 = getelementptr inbounds [1000 x %struct.student], [1000 x %struct.student]* @stu, i64 0, i64 %86
  %88 = getelementptr inbounds %struct.student, %struct.student* %87, i32 0, i32 1
  %89 = getelementptr inbounds [6 x i32], [6 x i32]* %88, i64 0, i64 1
  %90 = load i32, i32* %89, align 4
  %91 = icmp sgt i32 %90, 85
  br i1 %91, label %92, label %107

92:                                               ; preds = %84
  %93 = load i32, i32* %14, align 4
  %94 = sext i32 %93 to i64
  %95 = getelementptr inbounds [1000 x %struct.student], [1000 x %struct.student]* @stu, i64 0, i64 %94
  %96 = getelementptr inbounds %struct.student, %struct.student* %95, i32 0, i32 1
  %97 = getelementptr inbounds [6 x i32], [6 x i32]* %96, i64 0, i64 2
  %98 = load i32, i32* %97, align 4
  %99 = icmp sgt i32 %98, 80
  br i1 %99, label %100, label %107

100:                                              ; preds = %92
  %101 = load i32, i32* %14, align 4
  %102 = sext i32 %101 to i64
  %103 = getelementptr inbounds [1000 x %struct.student], [1000 x %struct.student]* @stu, i64 0, i64 %102
  %104 = getelementptr inbounds %struct.student, %struct.student* %103, i32 0, i32 3
  %105 = load i32, i32* %104, align 4
  %106 = add nsw i32 %105, 4000
  store i32 %106, i32* %104, align 4
  br label %107

107:                                              ; preds = %100, %92, %84
  %108 = load i32, i32* %14, align 4
  %109 = sext i32 %108 to i64
  %110 = getelementptr inbounds [1000 x %struct.student], [1000 x %struct.student]* @stu, i64 0, i64 %109
  %111 = getelementptr inbounds %struct.student, %struct.student* %110, i32 0, i32 1
  %112 = getelementptr inbounds [6 x i32], [6 x i32]* %111, i64 0, i64 1
  %113 = load i32, i32* %112, align 4
  %114 = icmp sgt i32 %113, 90
  br i1 %114, label %115, label %122

115:                                              ; preds = %107
  %116 = load i32, i32* %14, align 4
  %117 = sext i32 %116 to i64
  %118 = getelementptr inbounds [1000 x %struct.student], [1000 x %struct.student]* @stu, i64 0, i64 %117
  %119 = getelementptr inbounds %struct.student, %struct.student* %118, i32 0, i32 3
  %120 = load i32, i32* %119, align 4
  %121 = add nsw i32 %120, 2000
  store i32 %121, i32* %119, align 4
  br label %122

122:                                              ; preds = %115, %107
  %123 = load i32, i32* %14, align 4
  %124 = sext i32 %123 to i64
  %125 = getelementptr inbounds [1000 x %struct.student], [1000 x %struct.student]* @stu, i64 0, i64 %124
  %126 = getelementptr inbounds %struct.student, %struct.student* %125, i32 0, i32 1
  %127 = getelementptr inbounds [6 x i32], [6 x i32]* %126, i64 0, i64 1
  %128 = load i32, i32* %127, align 4
  %129 = icmp sgt i32 %128, 85
  br i1 %129, label %130, label %146

130:                                              ; preds = %122
  %131 = load i32, i32* %14, align 4
  %132 = sext i32 %131 to i64
  %133 = getelementptr inbounds [1000 x %struct.student], [1000 x %struct.student]* @stu, i64 0, i64 %132
  %134 = getelementptr inbounds %struct.student, %struct.student* %133, i32 0, i32 2
  %135 = getelementptr inbounds [3 x i8], [3 x i8]* %134, i64 0, i64 2
  %136 = load i8, i8* %135, align 2
  %137 = sext i8 %136 to i32
  %138 = icmp eq i32 %137, 89
  br i1 %138, label %139, label %146

139:                                              ; preds = %130
  %140 = load i32, i32* %14, align 4
  %141 = sext i32 %140 to i64
  %142 = getelementptr inbounds [1000 x %struct.student], [1000 x %struct.student]* @stu, i64 0, i64 %141
  %143 = getelementptr inbounds %struct.student, %struct.student* %142, i32 0, i32 3
  %144 = load i32, i32* %143, align 4
  %145 = add nsw i32 %144, 1000
  store i32 %145, i32* %143, align 4
  br label %146

146:                                              ; preds = %139, %130, %122
  %147 = load i32, i32* %14, align 4
  %148 = sext i32 %147 to i64
  %149 = getelementptr inbounds [1000 x %struct.student], [1000 x %struct.student]* @stu, i64 0, i64 %148
  %150 = getelementptr inbounds %struct.student, %struct.student* %149, i32 0, i32 1
  %151 = getelementptr inbounds [6 x i32], [6 x i32]* %150, i64 0, i64 2
  %152 = load i32, i32* %151, align 4
  %153 = icmp sgt i32 %152, 80
  br i1 %153, label %154, label %170

154:                                              ; preds = %146
  %155 = load i32, i32* %14, align 4
  %156 = sext i32 %155 to i64
  %157 = getelementptr inbounds [1000 x %struct.student], [1000 x %struct.student]* @stu, i64 0, i64 %156
  %158 = getelementptr inbounds %struct.student, %struct.student* %157, i32 0, i32 2
  %159 = getelementptr inbounds [3 x i8], [3 x i8]* %158, i64 0, i64 1
  %160 = load i8, i8* %159, align 1
  %161 = sext i8 %160 to i32
  %162 = icmp eq i32 %161, 89
  br i1 %162, label %163, label %170

163:                                              ; preds = %154
  %164 = load i32, i32* %14, align 4
  %165 = sext i32 %164 to i64
  %166 = getelementptr inbounds [1000 x %struct.student], [1000 x %struct.student]* @stu, i64 0, i64 %165
  %167 = getelementptr inbounds %struct.student, %struct.student* %166, i32 0, i32 3
  %168 = load i32, i32* %167, align 4
  %169 = add nsw i32 %168, 850
  store i32 %169, i32* %167, align 4
  br label %170

170:                                              ; preds = %163, %154, %146
  %171 = load i32, i32* %14, align 4
  %172 = sext i32 %171 to i64
  %173 = getelementptr inbounds [1000 x %struct.student], [1000 x %struct.student]* @stu, i64 0, i64 %172
  %174 = getelementptr inbounds %struct.student, %struct.student* %173, i32 0, i32 3
  %175 = load i32, i32* %174, align 4
  %176 = load i32, i32* %17, align 4
  %177 = add nsw i32 %176, %175
  store i32 %177, i32* %17, align 4
  %178 = load i32, i32* %14, align 4
  %179 = sext i32 %178 to i64
  %180 = getelementptr inbounds [1000 x %struct.student], [1000 x %struct.student]* @stu, i64 0, i64 %179
  %181 = getelementptr inbounds %struct.student, %struct.student* %180, i32 0, i32 3
  %182 = load i32, i32* %181, align 4
  %183 = load i32, i32* %7, align 4
  %184 = icmp sgt i32 %182, %183
  br i1 %184, label %185, label %192

185:                                              ; preds = %170
  %186 = load i32, i32* %14, align 4
  %187 = sext i32 %186 to i64
  %188 = getelementptr inbounds [1000 x %struct.student], [1000 x %struct.student]* @stu, i64 0, i64 %187
  %189 = getelementptr inbounds %struct.student, %struct.student* %188, i32 0, i32 3
  %190 = load i32, i32* %189, align 4
  store i32 %190, i32* %7, align 4
  %191 = load i32, i32* %14, align 4
  store i32 %191, i32* %9, align 4
  br label %192

192:                                              ; preds = %185, %170
  br label %193

193:                                              ; preds = %192
  %194 = load i32, i32* %14, align 4
  %195 = add nsw i32 %194, 1
  store i32 %195, i32* %14, align 4
  br label %21

196:                                              ; preds = %21
  %197 = load i32, i32* %9, align 4
  %198 = sext i32 %197 to i64
  %199 = getelementptr inbounds [1000 x %struct.student], [1000 x %struct.student]* @stu, i64 0, i64 %198
  %200 = getelementptr inbounds %struct.student, %struct.student* %199, i32 0, i32 0
  %201 = getelementptr inbounds [20 x i8], [20 x i8]* %200, i64 0, i64 0
  %202 = load i32, i32* %9, align 4
  %203 = sext i32 %202 to i64
  %204 = getelementptr inbounds [1000 x %struct.student], [1000 x %struct.student]* @stu, i64 0, i64 %203
  %205 = getelementptr inbounds %struct.student, %struct.student* %204, i32 0, i32 3
  %206 = load i32, i32* %205, align 4
  %207 = load i32, i32* %17, align 4
  %208 = call i32 (i8*, ...) @printf(i8* getelementptr inbounds ([9 x i8], [9 x i8]* @.str.4, i64 0, i64 0), i8* %201, i32 %206, i32 %207)
  %209 = load i32, i32* %1, align 4
  ret i32 %209
}

; Function Attrs: argmemonly nounwind willreturn
declare void @llvm.memset.p0i8.i64(i8* nocapture writeonly, i8, i64, i1 immarg) #1

declare dso_local i32 @__isoc99_scanf(i8*, ...) #2

declare dso_local i32 @printf(i8*, ...) #2


!llvm.module.flags = !{!0}
!llvm.ident = !{!1}

!0 = !{i32 1, !"wchar_size", i32 4}
!1 = !{!"clang version 10.0.0-4ubuntu1 "}
